#include <math.h>
#include <stdio.h>
#include <stdlib.h>
#include <string.h>

void main()
{
	int n,k,i,m,p,sign=0;
	scanf("%d%d",&n,&k);
	m=n+k;
	while(!sign)
	{
		p=m;
		sign=1;
		for(i=0;i<n;i++)
		{
			if(p%n!=k||p<n+k){
				sign=0;
				break;
			}
			p=p-p/n-k;
		}
		if(sign)
		{
			printf("%d",m);
			break;
		}
		m++;
	}
}