; ModuleID = '54/390.c'
source_filename = "54/390.c"
target datalayout = "e-m:e-p270:32:32-p271:32:32-p272:64:64-i64:64-f80:128-n8:16:32:64-S128"
target triple = "x86_64-pc-linux-gnu"

@.str = private unnamed_addr constant [5 x i8] c"%d%d\00", align 1
@.str.1 = private unnamed_addr constant [3 x i8] c"%d\00", align 1

; Function Attrs: noinline nounwind uwtable
define dso_local void @main() #0 {
  %1 = alloca i32, align 4
  %2 = alloca i32, align 4
  %3 = alloca i32, align 4
  %4 = alloca i32, align 4
  %5 = alloca i32, align 4
  %6 = alloca i32, align 4
  store i32 0, i32* %6, align 4
  %7 = call i32 (i8*, ...) @__isoc99_scanf(i8* getelementptr inbounds ([5 x i8], [5 x i8]* @.str, i64 0, i64 0), i32* %1, i32* %2)
  %8 = load i32, i32* %1, align 4
  %9 = load i32, i32* %2, align 4
  %10 = add nsw i32 %8, %9
  store i32 %10, i32* %4, align 4
  br label %11

11:                                               ; preds = %51, %0
  %12 = load i32, i32* %6, align 4
  %13 = icmp ne i32 %12, 0
  %14 = xor i1 %13, true
  br i1 %14, label %15, label %54

15:                                               ; preds = %11
  %16 = load i32, i32* %4, align 4
  store i32 %16, i32* %5, align 4
  store i32 1, i32* %6, align 4
  store i32 0, i32* %3, align 4
  br label %17

17:                                               ; preds = %42, %15
  %18 = load i32, i32* %3, align 4
  %19 = load i32, i32* %1, align 4
  %20 = icmp slt i32 %18, %19
  br i1 %20, label %21, label %45

21:                                               ; preds = %17
  %22 = load i32, i32* %5, align 4
  %23 = load i32, i32* %1, align 4
  %24 = srem i32 %22, %23
  %25 = load i32, i32* %2, align 4
  %26 = icmp ne i32 %24, %25
  br i1 %26, label %33, label %27

27:                                               ; preds = %21
  %28 = load i32, i32* %5, align 4
  %29 = load i32, i32* %1, align 4
  %30 = load i32, i32* %2, align 4
  %31 = add nsw i32 %29, %30
  %32 = icmp slt i32 %28, %31
  br i1 %32, label %33, label %34

33:                                               ; preds = %27, %21
  store i32 0, i32* %6, align 4
  br label %45

34:                                               ; preds = %27
  %35 = load i32, i32* %5, align 4
  %36 = load i32, i32* %5, align 4
  %37 = load i32, i32* %1, align 4
  %38 = sdiv i32 %36, %37
  %39 = sub nsw i32 %35, %38
  %40 = load i32, i32* %2, align 4
  %41 = sub nsw i32 %39, %40
  store i32 %41, i32* %5, align 4
  br label %42

42:                                               ; preds = %34
  %43 = load i32, i32* %3, align 4
  %44 = add nsw i32 %43, 1
  store i32 %44, i32* %3, align 4
  br label %17

45:                                               ; preds = %33, %17
  %46 = load i32, i32* %6, align 4
  %47 = icmp ne i32 %46, 0
  br i1 %47, label %48, label %51

48:                                               ; preds = %45
  %49 = load i32, i32* %4, align 4
  %50 = call i32 (i8*, ...) @printf(i8* getelementptr inbounds ([3 x i8], [3 x i8]* @.str.1, i64 0, i64 0), i32 %49)
  br label %54

51:                                               ; preds = %45
  %52 = load i32, i32* %4, align 4
  %53 = add nsw i32 %52, 1
  store i32 %53, i32* %4, align 4
  br label %11

54:                                               ; preds = %48, %11
  ret void
}

declare dso_local i32 @__isoc99_scanf(i8*, ...) #1

declare dso_local i32 @printf(i8*, ...) #1


!llvm.module.flags = !{!0}
!llvm.ident = !{!1}

!0 = !{i32 1, !"wchar_size", i32 4}
!1 = !{!"clang version 10.0.0-4ubuntu1 "}
